; Function Attrs: nounwind sspstrong uwtable
define dso_local ptr @fw_cfg_modify_file(ptr noundef %0, ptr noundef %1, ptr noundef %2, i64 noundef %3) local_unnamed_addr #2 {
  %5 = getelementptr inbounds nuw i8, ptr %0, i64 840
  %6 = load ptr, ptr %5, align 8
  %.not = icmp eq ptr %6, null
  br i1 %.not, label %7, label %8

7:                                                ; preds = %4
  tail call void @__assert_fail(ptr noundef nonnull @.str.5, ptr noundef nonnull @.str.1, i32 noundef 1007, ptr noundef nonnull @__PRETTY_FUNCTION__.fw_cfg_modify_file) #19
  unreachable

8:                                                ; preds = %4
  %9 = load i32, ptr %6, align 4
  %10 = tail call noundef i32 @llvm.bswap.i32(i32 %9)
  %11 = icmp sgt i32 %10, 0
  br i1 %11, label %.lr.ph, label %._crit_edge

.lr.ph:                                           ; preds = %8
  %12 = getelementptr i8, ptr %6, i64 12
  %wide.trip.count = zext nneg i32 %10 to i64
  br label %13

13:                                               ; preds = %.lr.ph, %55
  %indvars.iv = phi i64 [ 0, %.lr.ph ], [ %indvars.iv.next, %55 ]
  %.idx = shl nuw nsw i64 %indvars.iv, 6
  %14 = getelementptr i8, ptr %12, i64 %.idx
  %15 = tail call i32 @strcmp(ptr noundef nonnull dereferenceable(1) %1, ptr noundef nonnull dereferenceable(1) %14) #20
  %16 = icmp eq i32 %15, 0
  br i1 %16, label %17, label %55

17:                                               ; preds = %13
  %18 = trunc i64 %indvars.iv to i16
  %19 = add i16 %18, 32
  %20 = and i16 %19, 16383
  %21 = zext nneg i16 %20 to i32
  %22 = getelementptr i8, ptr %0, i64 808
  %.val.i = load i16, ptr %22, align 8
  %23 = zext i16 %.val.i to i32
  %24 = add nuw nsw i32 %23, 32
  %25 = icmp samesign ugt i32 %24, %21
  %26 = icmp ult i64 %3, 4294967295
  %or.cond.i = and i1 %26, %25
  br i1 %or.cond.i, label %fw_cfg_modify_bytes_read.exit, label %27

27:                                               ; preds = %17
  tail call void @__assert_fail(ptr noundef nonnull @.str.46, ptr noundef nonnull @.str.1, i32 noundef 726, ptr noundef nonnull @__PRETTY_FUNCTION__.fw_cfg_modify_bytes_read) #19
  unreachable

fw_cfg_modify_bytes_read.exit:                    ; preds = %17
  %.lobit.i = lshr i16 %19, 15
  %28 = getelementptr inbounds nuw i8, ptr %0, i64 816
  %29 = zext nneg i16 %.lobit.i to i64
  %30 = getelementptr inbounds nuw [2 x ptr], ptr %28, i64 0, i64 %29
  %31 = load ptr, ptr %30, align 8
  %32 = zext nneg i16 %20 to i64
  %33 = getelementptr inbounds nuw %struct.FWCfgEntry, ptr %31, i64 %32, i32 2
  %34 = load ptr, ptr %33, align 8
  store ptr %2, ptr %33, align 8
  %35 = trunc nuw i64 %3 to i32
  %36 = load ptr, ptr %30, align 8
  %37 = getelementptr inbounds nuw %struct.FWCfgEntry, ptr %36, i64 %32
  store i32 %35, ptr %37, align 8
  %38 = load ptr, ptr %30, align 8
  %39 = getelementptr inbounds nuw %struct.FWCfgEntry, ptr %38, i64 %32, i32 1
  store i8 0, ptr %39, align 4
  %40 = tail call noundef i32 @llvm.bswap.i32(i32 %35)
  %41 = load ptr, ptr %5, align 8
  %42 = getelementptr inbounds nuw i8, ptr %41, i64 4
  %43 = getelementptr inbounds nuw [0 x %struct.fw_cfg_file], ptr %42, i64 0, i64 %indvars.iv
  store i32 %40, ptr %43, align 4
  %44 = tail call i32 @strcmp(ptr noundef nonnull readonly dereferenceable(1) %1, ptr noundef nonnull dereferenceable(16) @.str.71) #20
  %.not.i = icmp eq i32 %44, 0
  br i1 %.not.i, label %45, label %47

45:                                               ; preds = %fw_cfg_modify_bytes_read.exit
  %46 = getelementptr inbounds nuw i8, ptr %0, i64 1192
  store i64 %3, ptr %46, align 8
  br label %fw_cfg_acpi_mr_save.exit

47:                                               ; preds = %fw_cfg_modify_bytes_read.exit
  %48 = tail call i32 @strcmp(ptr noundef nonnull readonly dereferenceable(1) %1, ptr noundef nonnull dereferenceable(17) @.str.72) #20
  %.not8.i = icmp eq i32 %48, 0
  br i1 %.not8.i, label %49, label %51

49:                                               ; preds = %47
  %50 = getelementptr inbounds nuw i8, ptr %0, i64 1200
  store i64 %3, ptr %50, align 16
  br label %fw_cfg_acpi_mr_save.exit

51:                                               ; preds = %47
  %52 = tail call i32 @strcmp(ptr noundef nonnull readonly dereferenceable(1) %1, ptr noundef nonnull dereferenceable(14) @.str.74) #20
  %.not9.i = icmp eq i32 %52, 0
  br i1 %.not9.i, label %53, label %fw_cfg_acpi_mr_save.exit

53:                                               ; preds = %51
  %54 = getelementptr inbounds nuw i8, ptr %0, i64 1208
  store i64 %3, ptr %54, align 8
  br label %fw_cfg_acpi_mr_save.exit

55:                                               ; preds = %13
  %indvars.iv.next = add nuw nsw i64 %indvars.iv, 1
  %exitcond.not = icmp eq i64 %indvars.iv.next, %wide.trip.count
  br i1 %exitcond.not, label %._crit_edge, label %13, !llvm.loop !14

._crit_edge:                                      ; preds = %55, %8
  %56 = getelementptr i8, ptr %0, i64 808
  %.val = load i16, ptr %56, align 8
  %57 = zext i16 %.val to i32
  %58 = icmp slt i32 %10, %57
  br i1 %58, label %60, label %59

59:                                               ; preds = %._crit_edge
  tail call void @__assert_fail(ptr noundef nonnull @.str.6, ptr noundef nonnull @.str.1, i32 noundef 1021, ptr noundef nonnull @__PRETTY_FUNCTION__.fw_cfg_modify_file) #19
  unreachable

60:                                               ; preds = %._crit_edge
  tail call void @fw_cfg_add_file_callback(ptr noundef nonnull %0, ptr noundef %1, ptr noundef null, ptr noundef null, ptr noundef null, ptr noundef %2, i64 noundef %3, i1 noundef zeroext true)
  br label %fw_cfg_acpi_mr_save.exit

fw_cfg_acpi_mr_save.exit:                         ; preds = %53, %51, %49, %45, %60
  %.025 = phi ptr [ null, %60 ], [ %34, %45 ], [ %34, %49 ], [ %34, %51 ], [ %34, %53 ]
  ret ptr %.025
}